target datalayout = "e-m:e-p270:32:32-p271:32:32-p272:64:64-i64:64-i128:128-f80:128-n8:16:32:64-S128"
target triple = "x86_64-pc-linux-gnu"

%struct.DataHeader = type { %struct.MappedData, %struct.UDataInfo }
%struct.MappedData = type { i16, i8, i8 }
%struct.UDataInfo = type { i16, i16, i8, i8, i8, i8, [4 x i8], [4 x i8], [4 x i8] }
%struct.UDataMemory = type { ptr, ptr, ptr, i8, ptr, ptr, i32 }

; Function Attrs: mustprogress uwtable
define void @udata_getInfo_77(ptr noundef %0, ptr noundef %1) #1 {
  %3 = alloca ptr, align 8
  %4 = alloca ptr, align 8
  %5 = alloca ptr, align 8
  %6 = alloca i16, align 2
  %7 = alloca i16, align 2
  store ptr %0, ptr %3, align 8, !tbaa !43
  store ptr %1, ptr %4, align 8, !tbaa !22
  %8 = load ptr, ptr %4, align 8, !tbaa !22
  %9 = icmp ne ptr %8, null
  br i1 %9, label %10, label %74

10:                                               ; preds = %2
  %11 = load ptr, ptr %3, align 8, !tbaa !43
  %12 = icmp ne ptr %11, null
  br i1 %12, label %13, label %70

13:                                               ; preds = %10
  %14 = load ptr, ptr %3, align 8, !tbaa !43
  %15 = getelementptr inbounds nuw %struct.UDataMemory, ptr %14, i32 0, i32 1
  %16 = load ptr, ptr %15, align 8, !tbaa !45
  %17 = icmp ne ptr %16, null
  br i1 %17, label %18, label %70

18:                                               ; preds = %13
  call void @llvm.lifetime.start.p0(i64 8, ptr %5) #12
  %19 = load ptr, ptr %3, align 8, !tbaa !43
  %20 = getelementptr inbounds nuw %struct.UDataMemory, ptr %19, i32 0, i32 1
  %21 = load ptr, ptr %20, align 8, !tbaa !45
  %22 = getelementptr inbounds nuw %struct.DataHeader, ptr %21, i32 0, i32 1
  store ptr %22, ptr %5, align 8, !tbaa !22
  call void @llvm.lifetime.start.p0(i64 2, ptr %6) #12
  %23 = load ptr, ptr %5, align 8, !tbaa !22
  %24 = call zeroext i16 @udata_getInfoSize_77(ptr noundef %23)
  store i16 %24, ptr %6, align 2, !tbaa !57
  %25 = load ptr, ptr %4, align 8, !tbaa !22
  %26 = getelementptr inbounds nuw %struct.UDataInfo, ptr %25, i32 0, i32 0
  %27 = load i16, ptr %26, align 2, !tbaa !59
  %28 = zext i16 %27 to i32
  %29 = load i16, ptr %6, align 2, !tbaa !57
  %30 = zext i16 %29 to i32
  %31 = icmp sgt i32 %28, %30
  br i1 %31, label %32, label %36

32:                                               ; preds = %18
  %33 = load i16, ptr %6, align 2, !tbaa !57
  %34 = load ptr, ptr %4, align 8, !tbaa !22
  %35 = getelementptr inbounds nuw %struct.UDataInfo, ptr %34, i32 0, i32 0
  store i16 %33, ptr %35, align 2, !tbaa !59
  br label %36

36:                                               ; preds = %32, %18
  br label %37

37:                                               ; preds = %36
  %38 = load ptr, ptr %4, align 8, !tbaa !22
  %39 = getelementptr inbounds i16, ptr %38, i64 1
  %40 = load ptr, ptr %5, align 8, !tbaa !22
  %41 = getelementptr inbounds i16, ptr %40, i64 1
  %42 = load ptr, ptr %4, align 8, !tbaa !22
  %43 = getelementptr inbounds nuw %struct.UDataInfo, ptr %42, i32 0, i32 0
  %44 = load i16, ptr %43, align 2, !tbaa !59
  %45 = zext i16 %44 to i32
  %46 = sub nsw i32 %45, 2
  %47 = sext i32 %46 to i64
  call void @llvm.memcpy.p0.p0.i64(ptr align 2 %39, ptr align 2 %41, i64 %47, i1 false)
  br label %48

48:                                               ; preds = %37
  br label %49

49:                                               ; preds = %48
  %50 = load ptr, ptr %5, align 8, !tbaa !22
  %51 = getelementptr inbounds nuw %struct.UDataInfo, ptr %50, i32 0, i32 2
  %52 = load i8, ptr %51, align 2, !tbaa !61
  %53 = zext i8 %52 to i32
  %54 = icmp ne i32 %53, 0
  br i1 %54, label %55, label %69

55:                                               ; preds = %49
  call void @llvm.lifetime.start.p0(i64 2, ptr %7) #12
  %56 = load ptr, ptr %5, align 8, !tbaa !22
  %57 = getelementptr inbounds nuw %struct.UDataInfo, ptr %56, i32 0, i32 1
  %58 = load i16, ptr %57, align 2, !tbaa !62
  store i16 %58, ptr %7, align 2, !tbaa !57
  %59 = load i16, ptr %7, align 2, !tbaa !57
  %60 = zext i16 %59 to i32
  %61 = shl i32 %60, 8
  %62 = load i16, ptr %7, align 2, !tbaa !57
  %63 = zext i16 %62 to i32
  %64 = ashr i32 %63, 8
  %65 = or i32 %61, %64
  %66 = trunc i32 %65 to i16
  %67 = load ptr, ptr %4, align 8, !tbaa !22
  %68 = getelementptr inbounds nuw %struct.UDataInfo, ptr %67, i32 0, i32 1
  store i16 %66, ptr %68, align 2, !tbaa !62
  call void @llvm.lifetime.end.p0(i64 2, ptr %7) #12
  br label %69

69:                                               ; preds = %55, %49
  call void @llvm.lifetime.end.p0(i64 2, ptr %6) #12
  call void @llvm.lifetime.end.p0(i64 8, ptr %5) #12
  br label %73

70:                                               ; preds = %13, %10
  %71 = load ptr, ptr %4, align 8, !tbaa !22
  %72 = getelementptr inbounds nuw %struct.UDataInfo, ptr %71, i32 0, i32 0
  store i16 0, ptr %72, align 2, !tbaa !59
  br label %73

73:                                               ; preds = %70, %69
  br label %74

74:                                               ; preds = %73, %2
  ret void
}