; Function Attrs: mustprogress uwtable
define void @udata_getInfo_77(ptr noundef readonly %0, ptr noundef %1) local_unnamed_addr #1 {
  %.not = icmp eq ptr %1, null
  br i1 %.not, label %25, label %3

3:                                                ; preds = %2
  %.not19 = icmp eq ptr %0, null
  br i1 %.not19, label %24, label %4

4:                                                ; preds = %3
  %5 = getelementptr inbounds nuw i8, ptr %0, i64 8
  %6 = load ptr, ptr %5, align 8, !tbaa !32
  %.not20 = icmp eq ptr %6, null
  br i1 %.not20, label %24, label %7

7:                                                ; preds = %4
  %8 = getelementptr inbounds nuw i8, ptr %6, i64 4
  %9 = tail call zeroext i16 @udata_getInfoSize_77(ptr noundef nonnull %8)
  %10 = load i16, ptr %1, align 2, !tbaa !40
  %11 = icmp ugt i16 %10, %9
  br i1 %11, label %12, label %13

12:                                               ; preds = %7
  store i16 %9, ptr %1, align 2, !tbaa !40
  br label %13

13:                                               ; preds = %7, %12
  %14 = phi i16 [ %10, %7 ], [ %9, %12 ]
  %15 = getelementptr inbounds nuw i8, ptr %1, i64 2
  %16 = getelementptr inbounds nuw i8, ptr %6, i64 6
  %17 = zext i16 %14 to i64
  %18 = add nsw i64 %17, -2
  tail call void @llvm.memcpy.p0.p0.i64(ptr nonnull align 2 %15, ptr nonnull align 2 %16, i64 %18, i1 false)
  %19 = getelementptr inbounds nuw i8, ptr %6, i64 8
  %20 = load i8, ptr %19, align 2, !tbaa !43
  %.not21 = icmp eq i8 %20, 0
  br i1 %.not21, label %25, label %21

21:                                               ; preds = %13
  %22 = load i16, ptr %16, align 2, !tbaa !44
  %23 = tail call i16 @llvm.bswap.i16(i16 %22)
  store i16 %23, ptr %15, align 2, !tbaa !44
  br label %25

24:                                               ; preds = %4, %3
  store i16 0, ptr %1, align 2, !tbaa !40
  br label %25

25:                                               ; preds = %13, %21, %24, %2
  ret void
}